target datalayout = "e-m:e-p270:32:32-p271:32:32-p272:64:64-i64:64-i128:128-f80:128-n8:16:32:64-S128"
target triple = "x86_64-pc-linux-gnu"

%struct.darktable_t = type { %struct.dt_codepath_t, i32, i32, ptr, ptr, ptr, ptr, ptr, ptr, ptr, ptr, ptr, ptr, ptr, ptr, ptr, ptr, ptr, ptr, ptr, ptr, ptr, ptr, ptr, ptr, ptr, ptr, ptr, ptr, ptr, [64 x %struct.dt_pthread_mutex_t], %struct.dt_pthread_mutex_t, %struct.dt_pthread_mutex_t, %struct.dt_pthread_mutex_t, %struct.dt_pthread_mutex_t, %struct.dt_pthread_mutex_t, ptr, ptr, ptr, ptr, ptr, ptr, ptr, ptr, ptr, ptr, ptr, ptr, ptr, %struct.dt_lua_state_t, ptr, double, ptr, i32, [47 x i32], i32, i32, ptr, ptr, %struct.dt_sys_resources_t, %struct.dt_backthumb_t, %struct.dt_gimp_t }
%struct.dt_codepath_t = type { i8, [3 x i8] }
%struct.dt_pthread_mutex_t = type { %union.pthread_mutex_t }
%union.pthread_mutex_t = type { %struct.__pthread_mutex_s }
%struct.__pthread_mutex_s = type { i32, i32, i32, i32, i32, i16, i16, %struct.__pthread_internal_list }
%struct.__pthread_internal_list = type { ptr, ptr }
%struct.dt_lua_state_t = type { i32 }
%struct.dt_sys_resources_t = type { i64, i64, ptr, ptr, i32 }
%struct.dt_backthumb_t = type { double, double, i32, i32, i32, i32 }
%struct.dt_gimp_t = type { i32, ptr, ptr, i32, i32 }

@darktable = external global %struct.darktable_t, align 8
@.str.43 = private unnamed_addr constant [115 x i8] c"generated/home/dtcxzyw/WorkSpace/Projects/compilers/llvm-opt-benchmark/bench/darktable/darktable/src/gui/presets.c\00", align 1
@stderr = external global ptr, align 8
@.str.45 = private unnamed_addr constant [53 x i8] c"sqlite3 error: %s:%d, function %s(), query \22%s\22: %s\0A\00", align 1
@.str.46 = private unnamed_addr constant [41 x i8] c"[sql] %s:%d, function %s(): prepare \22%s\22\00", align 1
@.str.48 = private unnamed_addr constant [41 x i8] c"sqlite3 error: %s:%d, function %s(): %s\0A\00", align 1
@__FUNCTION__.dt_gui_presets_update_av = private unnamed_addr constant [25 x i8] c"dt_gui_presets_update_av\00", align 1
@.str.98 = private unnamed_addr constant [106 x i8] c"UPDATE data.presets SET aperture_min=?1, aperture_max=?2 WHERE operation=?3 AND op_version=?4 AND name=?5\00", align 1

; Function Attrs: nounwind uwtable
define void @dt_gui_presets_update_av(ptr noundef %0, ptr noundef %1, i32 noundef %2, float noundef %3, float noundef %4) #0 {
  %6 = alloca ptr, align 8
  %7 = alloca ptr, align 8
  %8 = alloca i32, align 4
  %9 = alloca float, align 4
  %10 = alloca float, align 4
  %11 = alloca ptr, align 8
  %12 = alloca i32, align 4
  %13 = alloca i32, align 4
  %14 = alloca i32, align 4
  %15 = alloca i32, align 4
  %16 = alloca i32, align 4
  %17 = alloca i32, align 4
  store ptr %0, ptr %6, align 8, !tbaa !11
  store ptr %1, ptr %7, align 8, !tbaa !11
  store i32 %2, ptr %8, align 4, !tbaa !13
  store float %3, ptr %9, align 4, !tbaa !141
  store float %4, ptr %10, align 4, !tbaa !141
  call void @llvm.lifetime.start.p0(i64 8, ptr %11) #11
  br label %18

18:                                               ; preds = %5
  br label %19

19:                                               ; preds = %18
  %20 = load i32, ptr getelementptr inbounds nuw (%struct.darktable_t, ptr @darktable, i32 0, i32 2), align 8, !tbaa !23
  %21 = and i32 256, %20
  %22 = icmp ne i32 %21, 0
  br i1 %22, label %23, label %29

23:                                               ; preds = %19
  %24 = load i32, ptr getelementptr inbounds nuw (%struct.darktable_t, ptr @darktable, i32 0, i32 2), align 8, !tbaa !23
  %25 = xor i32 %24, -1
  %26 = and i32 0, %25
  %27 = icmp ne i32 %26, 0
  br i1 %27, label %29, label %28

28:                                               ; preds = %23
  call void (ptr, ...) @dt_print_ext(ptr noundef @.str.46, ptr noundef @.str.43, i32 noundef 1919, ptr noundef @__FUNCTION__.dt_gui_presets_update_av, ptr noundef @.str.98)
  br label %29

29:                                               ; preds = %28, %23, %19
  br label %30

30:                                               ; preds = %29
  br label %31

31:                                               ; preds = %30
  call void @llvm.lifetime.start.p0(i64 4, ptr %12) #11
  %32 = load ptr, ptr getelementptr inbounds nuw (%struct.darktable_t, ptr @darktable, i32 0, i32 18), align 8, !tbaa !59
  %33 = call ptr @dt_database_get(ptr noundef %32)
  %34 = call i32 @sqlite3_prepare_v2(ptr noundef %33, ptr noundef @.str.98, i32 noundef -1, ptr noundef %11, ptr noundef null)
  store i32 %34, ptr %12, align 4, !tbaa !13
  %35 = load i32, ptr %12, align 4, !tbaa !13
  %36 = icmp ne i32 %35, 0
  br i1 %36, label %37, label %43

37:                                               ; preds = %31
  %38 = load ptr, ptr @stderr, align 8, !tbaa !60
  %39 = load ptr, ptr getelementptr inbounds nuw (%struct.darktable_t, ptr @darktable, i32 0, i32 18), align 8, !tbaa !59
  %40 = call ptr @dt_database_get(ptr noundef %39)
  %41 = call ptr @sqlite3_errmsg(ptr noundef %40)
  %42 = call i32 (ptr, ptr, ...) @fprintf(ptr noundef %38, ptr noundef @.str.45, ptr noundef @.str.43, i32 noundef 1919, ptr noundef @__FUNCTION__.dt_gui_presets_update_av, ptr noundef @.str.98, ptr noundef %41) #11
  br label %43

43:                                               ; preds = %37, %31
  call void @llvm.lifetime.end.p0(i64 4, ptr %12) #11
  br label %44

44:                                               ; preds = %43
  br label %45

45:                                               ; preds = %44
  call void @llvm.lifetime.start.p0(i64 4, ptr %13) #11
  %46 = load ptr, ptr %11, align 8, !tbaa !62
  %47 = load float, ptr %9, align 4, !tbaa !141
  %48 = fpext reassoc nsz arcp contract afn float %47 to double
  %49 = call i32 @sqlite3_bind_double(ptr noundef %46, i32 noundef 1, double noundef %48)
  store i32 %49, ptr %13, align 4, !tbaa !13
  %50 = load i32, ptr %13, align 4, !tbaa !13
  %51 = icmp ne i32 %50, 0
  br i1 %51, label %52, label %58

52:                                               ; preds = %45
  %53 = load ptr, ptr @stderr, align 8, !tbaa !60
  %54 = load ptr, ptr getelementptr inbounds nuw (%struct.darktable_t, ptr @darktable, i32 0, i32 18), align 8, !tbaa !59
  %55 = call ptr @dt_database_get(ptr noundef %54)
  %56 = call ptr @sqlite3_errmsg(ptr noundef %55)
  %57 = call i32 (ptr, ptr, ...) @fprintf(ptr noundef %53, ptr noundef @.str.48, ptr noundef @.str.43, i32 noundef 1921, ptr noundef @__FUNCTION__.dt_gui_presets_update_av, ptr noundef %56) #11
  br label %58

58:                                               ; preds = %52, %45
  call void @llvm.lifetime.end.p0(i64 4, ptr %13) #11
  call void @llvm.lifetime.start.p0(i64 4, ptr %14) #11
  %59 = load ptr, ptr %11, align 8, !tbaa !62
  %60 = load float, ptr %10, align 4, !tbaa !141
  %61 = fpext reassoc nsz arcp contract afn float %60 to double
  %62 = call i32 @sqlite3_bind_double(ptr noundef %59, i32 noundef 2, double noundef %61)
  store i32 %62, ptr %14, align 4, !tbaa !13
  %63 = load i32, ptr %14, align 4, !tbaa !13
  %64 = icmp ne i32 %63, 0
  br i1 %64, label %65, label %71

65:                                               ; preds = %58
  %66 = load ptr, ptr @stderr, align 8, !tbaa !60
  %67 = load ptr, ptr getelementptr inbounds nuw (%struct.darktable_t, ptr @darktable, i32 0, i32 18), align 8, !tbaa !59
  %68 = call ptr @dt_database_get(ptr noundef %67)
  %69 = call ptr @sqlite3_errmsg(ptr noundef %68)
  %70 = call i32 (ptr, ptr, ...) @fprintf(ptr noundef %66, ptr noundef @.str.48, ptr noundef @.str.43, i32 noundef 1922, ptr noundef @__FUNCTION__.dt_gui_presets_update_av, ptr noundef %69) #11
  br label %71

71:                                               ; preds = %65, %58
  call void @llvm.lifetime.end.p0(i64 4, ptr %14) #11
  call void @llvm.lifetime.start.p0(i64 4, ptr %15) #11
  %72 = load ptr, ptr %11, align 8, !tbaa !62
  %73 = load ptr, ptr %7, align 8, !tbaa !11
  %74 = call i32 @sqlite3_bind_text(ptr noundef %72, i32 noundef 3, ptr noundef %73, i32 noundef -1, ptr noundef inttoptr (i64 -1 to ptr))
  store i32 %74, ptr %15, align 4, !tbaa !13
  %75 = load i32, ptr %15, align 4, !tbaa !13
  %76 = icmp ne i32 %75, 0
  br i1 %76, label %77, label %83

77:                                               ; preds = %71
  %78 = load ptr, ptr @stderr, align 8, !tbaa !60
  %79 = load ptr, ptr getelementptr inbounds nuw (%struct.darktable_t, ptr @darktable, i32 0, i32 18), align 8, !tbaa !59
  %80 = call ptr @dt_database_get(ptr noundef %79)
  %81 = call ptr @sqlite3_errmsg(ptr noundef %80)
  %82 = call i32 (ptr, ptr, ...) @fprintf(ptr noundef %78, ptr noundef @.str.48, ptr noundef @.str.43, i32 noundef 1923, ptr noundef @__FUNCTION__.dt_gui_presets_update_av, ptr noundef %81) #11
  br label %83

83:                                               ; preds = %77, %71
  call void @llvm.lifetime.end.p0(i64 4, ptr %15) #11
  call void @llvm.lifetime.start.p0(i64 4, ptr %16) #11
  %84 = load ptr, ptr %11, align 8, !tbaa !62
  %85 = load i32, ptr %8, align 4, !tbaa !13
  %86 = call i32 @sqlite3_bind_int(ptr noundef %84, i32 noundef 4, i32 noundef %85)
  store i32 %86, ptr %16, align 4, !tbaa !13
  %87 = load i32, ptr %16, align 4, !tbaa !13
  %88 = icmp ne i32 %87, 0
  br i1 %88, label %89, label %95

89:                                               ; preds = %83
  %90 = load ptr, ptr @stderr, align 8, !tbaa !60
  %91 = load ptr, ptr getelementptr inbounds nuw (%struct.darktable_t, ptr @darktable, i32 0, i32 18), align 8, !tbaa !59
  %92 = call ptr @dt_database_get(ptr noundef %91)
  %93 = call ptr @sqlite3_errmsg(ptr noundef %92)
  %94 = call i32 (ptr, ptr, ...) @fprintf(ptr noundef %90, ptr noundef @.str.48, ptr noundef @.str.43, i32 noundef 1924, ptr noundef @__FUNCTION__.dt_gui_presets_update_av, ptr noundef %93) #11
  br label %95

95:                                               ; preds = %89, %83
  call void @llvm.lifetime.end.p0(i64 4, ptr %16) #11
  call void @llvm.lifetime.start.p0(i64 4, ptr %17) #11
  %96 = load ptr, ptr %11, align 8, !tbaa !62
  %97 = load ptr, ptr %6, align 8, !tbaa !11
  %98 = call i32 @sqlite3_bind_text(ptr noundef %96, i32 noundef 5, ptr noundef %97, i32 noundef -1, ptr noundef inttoptr (i64 -1 to ptr))
  store i32 %98, ptr %17, align 4, !tbaa !13
  %99 = load i32, ptr %17, align 4, !tbaa !13
  %100 = icmp ne i32 %99, 0
  br i1 %100, label %101, label %107

101:                                              ; preds = %95
  %102 = load ptr, ptr @stderr, align 8, !tbaa !60
  %103 = load ptr, ptr getelementptr inbounds nuw (%struct.darktable_t, ptr @darktable, i32 0, i32 18), align 8, !tbaa !59
  %104 = call ptr @dt_database_get(ptr noundef %103)
  %105 = call ptr @sqlite3_errmsg(ptr noundef %104)
  %106 = call i32 (ptr, ptr, ...) @fprintf(ptr noundef %102, ptr noundef @.str.48, ptr noundef @.str.43, i32 noundef 1925, ptr noundef @__FUNCTION__.dt_gui_presets_update_av, ptr noundef %105) #11
  br label %107

107:                                              ; preds = %101, %95
  call void @llvm.lifetime.end.p0(i64 4, ptr %17) #11
  %108 = load ptr, ptr %11, align 8, !tbaa !62
  %109 = call i32 @sqlite3_step(ptr noundef %108)
  %110 = load ptr, ptr %11, align 8, !tbaa !62
  %111 = call i32 @sqlite3_finalize(ptr noundef %110)
  call void @llvm.lifetime.end.p0(i64 8, ptr %11) #11
  ret void
}